
vmlinux:     file format elf64-littleriscv


Disassembly of section .text:

0000000080000000 <_start>:
    80000000:	00001297          	auipc	t0,0x1
    80000004:	f8728293          	addi	t0,t0,-121 # 80000f87 <_bss_start>
    80000008:	00002317          	auipc	t1,0x2
    8000000c:	13830313          	addi	t1,t1,312 # 80002140 <_bss_end>

0000000080000010 <loop_clear_bss>:
    80000010:	00628863          	beq	t0,t1,80000020 <done_clear_bss>
    80000014:	00028023          	sb	zero,0(t0)
    80000018:	00128293          	addi	t0,t0,1
    8000001c:	ff5ff06f          	j	80000010 <loop_clear_bss>

0000000080000020 <done_clear_bss>:
    80000020:	0200c2b7          	lui	t0,0x200c
    80000024:	ff82829b          	addiw	t0,t0,-8
    80000028:	0002b283          	ld	t0,0(t0) # 200c000 <MTIME+0x8>
    8000002c:	000f4337          	lui	t1,0xf4
    80000030:	2403031b          	addiw	t1,t1,576
    80000034:	006282b3          	add	t0,t0,t1
    80000038:	02004337          	lui	t1,0x2004
    8000003c:	00533023          	sd	t0,0(t1) # 2004000 <MTIMECMP>
    80000040:	02000293          	li	t0,32
    80000044:	30329073          	csrw	mideleg,t0
    80000048:	0a000293          	li	t0,160
    8000004c:	30429073          	csrw	mie,t0
    80000050:	7ff00293          	li	t0,2047
    80000054:	00b28293          	addi	t0,t0,11
    80000058:	30029073          	csrw	mstatus,t0
    8000005c:	00000297          	auipc	t0,0x0
    80000060:	01c28293          	addi	t0,t0,28 # 80000078 <_start_retaddr>
    80000064:	34129073          	csrw	mepc,t0
    80000068:	00000297          	auipc	t0,0x0
    8000006c:	02828293          	addi	t0,t0,40 # 80000090 <exception_addr_m>
    80000070:	30529073          	csrw	mtvec,t0
    80000074:	30200073          	mret

0000000080000078 <_start_retaddr>:
    80000078:	0000a117          	auipc	sp,0xa
    8000007c:	0c810113          	addi	sp,sp,200 # 8000a140 <_end>
    80000080:	00000297          	auipc	t0,0x0
    80000084:	2c028293          	addi	t0,t0,704 # 80000340 <exception_addr_s>
    80000088:	10529073          	csrw	stvec,t0
    8000008c:	181000ef          	jal	ra,80000a0c <start_kernel>

0000000080000090 <exception_addr_m>:
    80000090:	ff810113          	addi	sp,sp,-8
    80000094:	00213023          	sd	sp,0(sp)
    80000098:	ff810113          	addi	sp,sp,-8
    8000009c:	00113023          	sd	ra,0(sp)
    800000a0:	ff810113          	addi	sp,sp,-8
    800000a4:	00313023          	sd	gp,0(sp)
    800000a8:	ff810113          	addi	sp,sp,-8
    800000ac:	00413023          	sd	tp,0(sp)
    800000b0:	ff810113          	addi	sp,sp,-8
    800000b4:	00513023          	sd	t0,0(sp)
    800000b8:	ff810113          	addi	sp,sp,-8
    800000bc:	00613023          	sd	t1,0(sp)
    800000c0:	ff810113          	addi	sp,sp,-8
    800000c4:	00713023          	sd	t2,0(sp)
    800000c8:	ff810113          	addi	sp,sp,-8
    800000cc:	00813023          	sd	s0,0(sp)
    800000d0:	ff810113          	addi	sp,sp,-8
    800000d4:	00913023          	sd	s1,0(sp)
    800000d8:	ff810113          	addi	sp,sp,-8
    800000dc:	00a13023          	sd	a0,0(sp)
    800000e0:	ff810113          	addi	sp,sp,-8
    800000e4:	00b13023          	sd	a1,0(sp)
    800000e8:	ff810113          	addi	sp,sp,-8
    800000ec:	00c13023          	sd	a2,0(sp)
    800000f0:	ff810113          	addi	sp,sp,-8
    800000f4:	00d13023          	sd	a3,0(sp)
    800000f8:	ff810113          	addi	sp,sp,-8
    800000fc:	00e13023          	sd	a4,0(sp)
    80000100:	ff810113          	addi	sp,sp,-8
    80000104:	00f13023          	sd	a5,0(sp)
    80000108:	ff810113          	addi	sp,sp,-8
    8000010c:	01013023          	sd	a6,0(sp)
    80000110:	ff810113          	addi	sp,sp,-8
    80000114:	01113023          	sd	a7,0(sp)
    80000118:	ff810113          	addi	sp,sp,-8
    8000011c:	01213023          	sd	s2,0(sp)
    80000120:	ff810113          	addi	sp,sp,-8
    80000124:	01313023          	sd	s3,0(sp)
    80000128:	ff810113          	addi	sp,sp,-8
    8000012c:	01413023          	sd	s4,0(sp)
    80000130:	ff810113          	addi	sp,sp,-8
    80000134:	01513023          	sd	s5,0(sp)
    80000138:	ff810113          	addi	sp,sp,-8
    8000013c:	01613023          	sd	s6,0(sp)
    80000140:	ff810113          	addi	sp,sp,-8
    80000144:	01713023          	sd	s7,0(sp)
    80000148:	ff810113          	addi	sp,sp,-8
    8000014c:	01813023          	sd	s8,0(sp)
    80000150:	ff810113          	addi	sp,sp,-8
    80000154:	01913023          	sd	s9,0(sp)
    80000158:	ff810113          	addi	sp,sp,-8
    8000015c:	01a13023          	sd	s10,0(sp)
    80000160:	ff810113          	addi	sp,sp,-8
    80000164:	01b13023          	sd	s11,0(sp)
    80000168:	ff810113          	addi	sp,sp,-8
    8000016c:	01c13023          	sd	t3,0(sp)
    80000170:	ff810113          	addi	sp,sp,-8
    80000174:	01d13023          	sd	t4,0(sp)
    80000178:	ff810113          	addi	sp,sp,-8
    8000017c:	01e13023          	sd	t5,0(sp)
    80000180:	ff810113          	addi	sp,sp,-8
    80000184:	01f13023          	sd	t6,0(sp)
    80000188:	300022f3          	csrr	t0,mstatus
    8000018c:	ff810113          	addi	sp,sp,-8
    80000190:	00513023          	sd	t0,0(sp)
    80000194:	342022f3          	csrr	t0,mcause
    80000198:	ff810113          	addi	sp,sp,-8
    8000019c:	00513023          	sd	t0,0(sp)
    800001a0:	343022f3          	csrr	t0,mtval
    800001a4:	ff810113          	addi	sp,sp,-8
    800001a8:	00513023          	sd	t0,0(sp)
    800001ac:	341022f3          	csrr	t0,mepc
    800001b0:	ff810113          	addi	sp,sp,-8
    800001b4:	00513023          	sd	t0,0(sp)
    800001b8:	342022f3          	csrr	t0,mcause
    800001bc:	0402c263          	bltz	t0,80000200 <interupt_table_m>

00000000800001c0 <ecall_handler_m>:
    800001c0:	02004337          	lui	t1,0x2004
    800001c4:	00033303          	ld	t1,0(t1) # 2004000 <MTIMECMP>
    800001c8:	000182b7          	lui	t0,0x18
    800001cc:	6a02829b          	addiw	t0,t0,1696
    800001d0:	00530333          	add	t1,t1,t0
    800001d4:	020042b7          	lui	t0,0x2004
    800001d8:	0062b023          	sd	t1,0(t0) # 2004000 <MTIMECMP>
    800001dc:	08000293          	li	t0,128
    800001e0:	3042a073          	csrs	mie,t0
    800001e4:	00013283          	ld	t0,0(sp)
    800001e8:	00810113          	addi	sp,sp,8
    800001ec:	00428293          	addi	t0,t0,4
    800001f0:	34129073          	csrw	mepc,t0
    800001f4:	02000293          	li	t0,32
    800001f8:	3442b073          	csrc	mip,t0
    800001fc:	0240006f          	j	80000220 <exception_retaddr_m>

0000000080000200 <interupt_table_m>:
    80000200:	08000293          	li	t0,128
    80000204:	3042b073          	csrc	mie,t0
    80000208:	02000293          	li	t0,32
    8000020c:	3442a073          	csrs	mip,t0
    80000210:	00013283          	ld	t0,0(sp)
    80000214:	00810113          	addi	sp,sp,8
    80000218:	34129073          	csrw	mepc,t0
    8000021c:	0040006f          	j	80000220 <exception_retaddr_m>

0000000080000220 <exception_retaddr_m>:
    80000220:	00013283          	ld	t0,0(sp)
    80000224:	00810113          	addi	sp,sp,8
    80000228:	34329073          	csrw	mtval,t0
    8000022c:	00013283          	ld	t0,0(sp)
    80000230:	00810113          	addi	sp,sp,8
    80000234:	34229073          	csrw	mcause,t0
    80000238:	00013283          	ld	t0,0(sp)
    8000023c:	00810113          	addi	sp,sp,8
    80000240:	30029073          	csrw	mstatus,t0
    80000244:	00013f83          	ld	t6,0(sp)
    80000248:	00810113          	addi	sp,sp,8
    8000024c:	00013f03          	ld	t5,0(sp)
    80000250:	00810113          	addi	sp,sp,8
    80000254:	00013e83          	ld	t4,0(sp)
    80000258:	00810113          	addi	sp,sp,8
    8000025c:	00013e03          	ld	t3,0(sp)
    80000260:	00810113          	addi	sp,sp,8
    80000264:	00013d83          	ld	s11,0(sp)
    80000268:	00810113          	addi	sp,sp,8
    8000026c:	00013d03          	ld	s10,0(sp)
    80000270:	00810113          	addi	sp,sp,8
    80000274:	00013c83          	ld	s9,0(sp)
    80000278:	00810113          	addi	sp,sp,8
    8000027c:	00013c03          	ld	s8,0(sp)
    80000280:	00810113          	addi	sp,sp,8
    80000284:	00013b83          	ld	s7,0(sp)
    80000288:	00810113          	addi	sp,sp,8
    8000028c:	00013b03          	ld	s6,0(sp)
    80000290:	00810113          	addi	sp,sp,8
    80000294:	00013a83          	ld	s5,0(sp)
    80000298:	00810113          	addi	sp,sp,8
    8000029c:	00013a03          	ld	s4,0(sp)
    800002a0:	00810113          	addi	sp,sp,8
    800002a4:	00013983          	ld	s3,0(sp)
    800002a8:	00810113          	addi	sp,sp,8
    800002ac:	00013903          	ld	s2,0(sp)
    800002b0:	00810113          	addi	sp,sp,8
    800002b4:	00013883          	ld	a7,0(sp)
    800002b8:	00810113          	addi	sp,sp,8
    800002bc:	00013803          	ld	a6,0(sp)
    800002c0:	00810113          	addi	sp,sp,8
    800002c4:	00013783          	ld	a5,0(sp)
    800002c8:	00810113          	addi	sp,sp,8
    800002cc:	00013703          	ld	a4,0(sp)
    800002d0:	00810113          	addi	sp,sp,8
    800002d4:	00013683          	ld	a3,0(sp)
    800002d8:	00810113          	addi	sp,sp,8
    800002dc:	00013603          	ld	a2,0(sp)
    800002e0:	00810113          	addi	sp,sp,8
    800002e4:	00013583          	ld	a1,0(sp)
    800002e8:	00810113          	addi	sp,sp,8
    800002ec:	00013503          	ld	a0,0(sp)
    800002f0:	00810113          	addi	sp,sp,8
    800002f4:	00013483          	ld	s1,0(sp)
    800002f8:	00810113          	addi	sp,sp,8
    800002fc:	00013403          	ld	s0,0(sp)
    80000300:	00810113          	addi	sp,sp,8
    80000304:	00013383          	ld	t2,0(sp)
    80000308:	00810113          	addi	sp,sp,8
    8000030c:	00013303          	ld	t1,0(sp)
    80000310:	00810113          	addi	sp,sp,8
    80000314:	00013283          	ld	t0,0(sp)
    80000318:	00810113          	addi	sp,sp,8
    8000031c:	00013203          	ld	tp,0(sp)
    80000320:	00810113          	addi	sp,sp,8
    80000324:	00013183          	ld	gp,0(sp)
    80000328:	00810113          	addi	sp,sp,8
    8000032c:	00013083          	ld	ra,0(sp)
    80000330:	00810113          	addi	sp,sp,8
    80000334:	00013103          	ld	sp,0(sp)
    80000338:	00810113          	addi	sp,sp,8
    8000033c:	30200073          	mret

0000000080000340 <exception_addr_s>:
    80000340:	ff810113          	addi	sp,sp,-8
    80000344:	00213023          	sd	sp,0(sp)
    80000348:	ff810113          	addi	sp,sp,-8
    8000034c:	00113023          	sd	ra,0(sp)
    80000350:	ff810113          	addi	sp,sp,-8
    80000354:	00313023          	sd	gp,0(sp)
    80000358:	ff810113          	addi	sp,sp,-8
    8000035c:	00413023          	sd	tp,0(sp)
    80000360:	ff810113          	addi	sp,sp,-8
    80000364:	00513023          	sd	t0,0(sp)
    80000368:	ff810113          	addi	sp,sp,-8
    8000036c:	00613023          	sd	t1,0(sp)
    80000370:	ff810113          	addi	sp,sp,-8
    80000374:	00713023          	sd	t2,0(sp)
    80000378:	ff810113          	addi	sp,sp,-8
    8000037c:	00813023          	sd	s0,0(sp)
    80000380:	ff810113          	addi	sp,sp,-8
    80000384:	00913023          	sd	s1,0(sp)
    80000388:	ff810113          	addi	sp,sp,-8
    8000038c:	00a13023          	sd	a0,0(sp)
    80000390:	ff810113          	addi	sp,sp,-8
    80000394:	00b13023          	sd	a1,0(sp)
    80000398:	ff810113          	addi	sp,sp,-8
    8000039c:	00c13023          	sd	a2,0(sp)
    800003a0:	ff810113          	addi	sp,sp,-8
    800003a4:	00d13023          	sd	a3,0(sp)
    800003a8:	ff810113          	addi	sp,sp,-8
    800003ac:	00e13023          	sd	a4,0(sp)
    800003b0:	ff810113          	addi	sp,sp,-8
    800003b4:	00f13023          	sd	a5,0(sp)
    800003b8:	ff810113          	addi	sp,sp,-8
    800003bc:	01013023          	sd	a6,0(sp)
    800003c0:	ff810113          	addi	sp,sp,-8
    800003c4:	01113023          	sd	a7,0(sp)
    800003c8:	ff810113          	addi	sp,sp,-8
    800003cc:	01213023          	sd	s2,0(sp)
    800003d0:	ff810113          	addi	sp,sp,-8
    800003d4:	01313023          	sd	s3,0(sp)
    800003d8:	ff810113          	addi	sp,sp,-8
    800003dc:	01413023          	sd	s4,0(sp)
    800003e0:	ff810113          	addi	sp,sp,-8
    800003e4:	01513023          	sd	s5,0(sp)
    800003e8:	ff810113          	addi	sp,sp,-8
    800003ec:	01613023          	sd	s6,0(sp)
    800003f0:	ff810113          	addi	sp,sp,-8
    800003f4:	01713023          	sd	s7,0(sp)
    800003f8:	ff810113          	addi	sp,sp,-8
    800003fc:	01813023          	sd	s8,0(sp)
    80000400:	ff810113          	addi	sp,sp,-8
    80000404:	01913023          	sd	s9,0(sp)
    80000408:	ff810113          	addi	sp,sp,-8
    8000040c:	01a13023          	sd	s10,0(sp)
    80000410:	ff810113          	addi	sp,sp,-8
    80000414:	01b13023          	sd	s11,0(sp)
    80000418:	ff810113          	addi	sp,sp,-8
    8000041c:	01c13023          	sd	t3,0(sp)
    80000420:	ff810113          	addi	sp,sp,-8
    80000424:	01d13023          	sd	t4,0(sp)
    80000428:	ff810113          	addi	sp,sp,-8
    8000042c:	01e13023          	sd	t5,0(sp)
    80000430:	ff810113          	addi	sp,sp,-8
    80000434:	01f13023          	sd	t6,0(sp)
    80000438:	100022f3          	csrr	t0,sstatus
    8000043c:	ff810113          	addi	sp,sp,-8
    80000440:	00513023          	sd	t0,0(sp)
    80000444:	142022f3          	csrr	t0,scause
    80000448:	ff810113          	addi	sp,sp,-8
    8000044c:	00513023          	sd	t0,0(sp)
    80000450:	143022f3          	csrr	t0,stval
    80000454:	ff810113          	addi	sp,sp,-8
    80000458:	00513023          	sd	t0,0(sp)
    8000045c:	141022f3          	csrr	t0,sepc
    80000460:	ff810113          	addi	sp,sp,-8
    80000464:	00513023          	sd	t0,0(sp)
    80000468:	142022f3          	csrr	t0,scause
    8000046c:	0002c263          	bltz	t0,80000470 <exception_table_s>

0000000080000470 <exception_table_s>:
    80000470:	0052f313          	andi	t1,t0,5
    80000474:	00030e63          	beqz	t1,80000490 <exception_retaddr_s>
    80000478:	189000ef          	jal	ra,80000e00 <sti_handler_s>
    8000047c:	00013283          	ld	t0,0(sp)
    80000480:	00810113          	addi	sp,sp,8
    80000484:	14129073          	csrw	sepc,t0
    80000488:	00000073          	ecall
    8000048c:	0040006f          	j	80000490 <exception_retaddr_s>

0000000080000490 <exception_retaddr_s>:
    80000490:	00013283          	ld	t0,0(sp)
    80000494:	00810113          	addi	sp,sp,8
    80000498:	14329073          	csrw	stval,t0
    8000049c:	00013283          	ld	t0,0(sp)
    800004a0:	00810113          	addi	sp,sp,8
    800004a4:	14229073          	csrw	scause,t0
    800004a8:	00013283          	ld	t0,0(sp)
    800004ac:	00810113          	addi	sp,sp,8
    800004b0:	10029073          	csrw	sstatus,t0
    800004b4:	00013f83          	ld	t6,0(sp)
    800004b8:	00810113          	addi	sp,sp,8
    800004bc:	00013f03          	ld	t5,0(sp)
    800004c0:	00810113          	addi	sp,sp,8
    800004c4:	00013e83          	ld	t4,0(sp)
    800004c8:	00810113          	addi	sp,sp,8
    800004cc:	00013e03          	ld	t3,0(sp)
    800004d0:	00810113          	addi	sp,sp,8
    800004d4:	00013d83          	ld	s11,0(sp)
    800004d8:	00810113          	addi	sp,sp,8
    800004dc:	00013d03          	ld	s10,0(sp)
    800004e0:	00810113          	addi	sp,sp,8
    800004e4:	00013c83          	ld	s9,0(sp)
    800004e8:	00810113          	addi	sp,sp,8
    800004ec:	00013c03          	ld	s8,0(sp)
    800004f0:	00810113          	addi	sp,sp,8
    800004f4:	00013b83          	ld	s7,0(sp)
    800004f8:	00810113          	addi	sp,sp,8
    800004fc:	00013b03          	ld	s6,0(sp)
    80000500:	00810113          	addi	sp,sp,8
    80000504:	00013a83          	ld	s5,0(sp)
    80000508:	00810113          	addi	sp,sp,8
    8000050c:	00013a03          	ld	s4,0(sp)
    80000510:	00810113          	addi	sp,sp,8
    80000514:	00013983          	ld	s3,0(sp)
    80000518:	00810113          	addi	sp,sp,8
    8000051c:	00013903          	ld	s2,0(sp)
    80000520:	00810113          	addi	sp,sp,8
    80000524:	00013883          	ld	a7,0(sp)
    80000528:	00810113          	addi	sp,sp,8
    8000052c:	00013803          	ld	a6,0(sp)
    80000530:	00810113          	addi	sp,sp,8
    80000534:	00013783          	ld	a5,0(sp)
    80000538:	00810113          	addi	sp,sp,8
    8000053c:	00013703          	ld	a4,0(sp)
    80000540:	00810113          	addi	sp,sp,8
    80000544:	00013683          	ld	a3,0(sp)
    80000548:	00810113          	addi	sp,sp,8
    8000054c:	00013603          	ld	a2,0(sp)
    80000550:	00810113          	addi	sp,sp,8
    80000554:	00013583          	ld	a1,0(sp)
    80000558:	00810113          	addi	sp,sp,8
    8000055c:	00013503          	ld	a0,0(sp)
    80000560:	00810113          	addi	sp,sp,8
    80000564:	00013483          	ld	s1,0(sp)
    80000568:	00810113          	addi	sp,sp,8
    8000056c:	00013403          	ld	s0,0(sp)
    80000570:	00810113          	addi	sp,sp,8
    80000574:	00013383          	ld	t2,0(sp)
    80000578:	00810113          	addi	sp,sp,8
    8000057c:	00013303          	ld	t1,0(sp)
    80000580:	00810113          	addi	sp,sp,8
    80000584:	00013283          	ld	t0,0(sp)
    80000588:	00810113          	addi	sp,sp,8
    8000058c:	00013203          	ld	tp,0(sp)
    80000590:	00810113          	addi	sp,sp,8
    80000594:	00013183          	ld	gp,0(sp)
    80000598:	00810113          	addi	sp,sp,8
    8000059c:	00013083          	ld	ra,0(sp)
    800005a0:	00810113          	addi	sp,sp,8
    800005a4:	00013103          	ld	sp,0(sp)
    800005a8:	00810113          	addi	sp,sp,8
    800005ac:	10200073          	sret

00000000800005b0 <__switch_to>:
    800005b0:	0015b023          	sd	ra,0(a1)
    800005b4:	0025b423          	sd	sp,8(a1)
    800005b8:	0085b823          	sd	s0,16(a1)
    800005bc:	0095bc23          	sd	s1,24(a1)
    800005c0:	0325b023          	sd	s2,32(a1)
    800005c4:	0335b423          	sd	s3,40(a1)
    800005c8:	0345b823          	sd	s4,48(a1)
    800005cc:	0355bc23          	sd	s5,56(a1)
    800005d0:	0565b023          	sd	s6,64(a1)
    800005d4:	0575b423          	sd	s7,72(a1)
    800005d8:	0585b823          	sd	s8,80(a1)
    800005dc:	0595bc23          	sd	s9,88(a1)
    800005e0:	07a5b023          	sd	s10,96(a1)
    800005e4:	07b5b423          	sd	s11,104(a1)
    800005e8:	00053083          	ld	ra,0(a0)
    800005ec:	00853103          	ld	sp,8(a0)
    800005f0:	01053403          	ld	s0,16(a0)
    800005f4:	01853483          	ld	s1,24(a0)
    800005f8:	02053903          	ld	s2,32(a0)
    800005fc:	02853983          	ld	s3,40(a0)
    80000600:	03053a03          	ld	s4,48(a0)
    80000604:	03853a83          	ld	s5,56(a0)
    80000608:	04053b03          	ld	s6,64(a0)
    8000060c:	04853b83          	ld	s7,72(a0)
    80000610:	05053c03          	ld	s8,80(a0)
    80000614:	05853c83          	ld	s9,88(a0)
    80000618:	06053d03          	ld	s10,96(a0)
    8000061c:	06853d83          	ld	s11,104(a0)
    80000620:	00008067          	ret

0000000080000624 <puts>:
    80000624:	00054783          	lbu	a5,0(a0)
    80000628:	00078c63          	beqz	a5,80000640 <puts+0x1c>
    8000062c:	10000737          	lui	a4,0x10000
    80000630:	00f70023          	sb	a5,0(a4) # 10000000 <MTIME+0xdff4008>
    80000634:	00154783          	lbu	a5,1(a0)
    80000638:	00150513          	addi	a0,a0,1
    8000063c:	fe079ae3          	bnez	a5,80000630 <puts+0xc>
    80000640:	00000513          	li	a0,0
    80000644:	00008067          	ret

0000000080000648 <puti>:
    80000648:	00900793          	li	a5,9
    8000064c:	06a7d663          	bge	a5,a0,800006b8 <puti+0x70>
    80000650:	00050713          	mv	a4,a0
    80000654:	00100793          	li	a5,1
    80000658:	00a00593          	li	a1,10
    8000065c:	06300613          	li	a2,99
    80000660:	0027969b          	slliw	a3,a5,0x2
    80000664:	00f687bb          	addw	a5,a3,a5
    80000668:	00070693          	mv	a3,a4
    8000066c:	0017979b          	slliw	a5,a5,0x1
    80000670:	02b7473b          	divw	a4,a4,a1
    80000674:	fed646e3          	blt	a2,a3,80000660 <puti+0x18>
    80000678:	00900613          	li	a2,9
    8000067c:	10000837          	lui	a6,0x10000
    80000680:	00a00593          	li	a1,10
    80000684:	02f546bb          	divw	a3,a0,a5
    80000688:	02f5653b          	remw	a0,a0,a5
    8000068c:	00d67a63          	bgeu	a2,a3,800006a0 <puti+0x58>
    80000690:	00080023          	sb	zero,0(a6) # 10000000 <MTIME+0xdff4008>
    80000694:	02b7c7bb          	divw	a5,a5,a1
    80000698:	fe0796e3          	bnez	a5,80000684 <puti+0x3c>
    8000069c:	00008067          	ret
    800006a0:	02b7c7bb          	divw	a5,a5,a1
    800006a4:	0306871b          	addiw	a4,a3,48
    800006a8:	0ff77713          	andi	a4,a4,255
    800006ac:	00e80023          	sb	a4,0(a6)
    800006b0:	fc079ae3          	bnez	a5,80000684 <puti+0x3c>
    800006b4:	00008067          	ret
    800006b8:	00100793          	li	a5,1
    800006bc:	fbdff06f          	j	80000678 <puti+0x30>

00000000800006c0 <print>:
    800006c0:	fb010113          	addi	sp,sp,-80
    800006c4:	02e13823          	sd	a4,48(sp)
    800006c8:	00b13c23          	sd	a1,24(sp)
    800006cc:	02c13023          	sd	a2,32(sp)
    800006d0:	02d13423          	sd	a3,40(sp)
    800006d4:	02f13c23          	sd	a5,56(sp)
    800006d8:	05013023          	sd	a6,64(sp)
    800006dc:	05113423          	sd	a7,72(sp)
    800006e0:	00054783          	lbu	a5,0(a0)
    800006e4:	01810713          	addi	a4,sp,24
    800006e8:	00e13423          	sd	a4,8(sp)
    800006ec:	0c078a63          	beqz	a5,800007c0 <print+0x100>
    800006f0:	02500e13          	li	t3,37
    800006f4:	100006b7          	lui	a3,0x10000
    800006f8:	06c00e93          	li	t4,108
    800006fc:	00900313          	li	t1,9
    80000700:	00a00613          	li	a2,10
    80000704:	06300893          	li	a7,99
    80000708:	07300f93          	li	t6,115
    8000070c:	06400f13          	li	t5,100
    80000710:	01c0006f          	j	8000072c <print+0x6c>
    80000714:	00070593          	mv	a1,a4
    80000718:	00f68023          	sb	a5,0(a3) # 10000000 <MTIME+0xdff4008>
    8000071c:	00050713          	mv	a4,a0
    80000720:	00058513          	mv	a0,a1
    80000724:	00174783          	lbu	a5,1(a4)
    80000728:	08078c63          	beqz	a5,800007c0 <print+0x100>
    8000072c:	00150713          	addi	a4,a0,1
    80000730:	ffc792e3          	bne	a5,t3,80000714 <print+0x54>
    80000734:	00154783          	lbu	a5,1(a0)
    80000738:	00250513          	addi	a0,a0,2
    8000073c:	0dd78663          	beq	a5,t4,80000808 <print+0x148>
    80000740:	08fee463          	bltu	t4,a5,800007c8 <print+0x108>
    80000744:	13178a63          	beq	a5,a7,80000878 <print+0x1b8>
    80000748:	fde79ee3          	bne	a5,t5,80000724 <print+0x64>
    8000074c:	00813783          	ld	a5,8(sp)
    80000750:	0007a803          	lw	a6,0(a5)
    80000754:	00878793          	addi	a5,a5,8
    80000758:	00f13423          	sd	a5,8(sp)
    8000075c:	13035a63          	bge	t1,a6,80000890 <print+0x1d0>
    80000760:	00080593          	mv	a1,a6
    80000764:	00100793          	li	a5,1
    80000768:	0027929b          	slliw	t0,a5,0x2
    8000076c:	00f287bb          	addw	a5,t0,a5
    80000770:	00058293          	mv	t0,a1
    80000774:	0017979b          	slliw	a5,a5,0x1
    80000778:	02c5c5bb          	divw	a1,a1,a2
    8000077c:	fe58c6e3          	blt	a7,t0,80000768 <print+0xa8>
    80000780:	02f842bb          	divw	t0,a6,a5
    80000784:	02f8683b          	remw	a6,a6,a5
    80000788:	00537e63          	bgeu	t1,t0,800007a4 <print+0xe4>
    8000078c:	00068023          	sb	zero,0(a3)
    80000790:	02c7c7bb          	divw	a5,a5,a2
    80000794:	f80788e3          	beqz	a5,80000724 <print+0x64>
    80000798:	02f842bb          	divw	t0,a6,a5
    8000079c:	02f8683b          	remw	a6,a6,a5
    800007a0:	fe5366e3          	bltu	t1,t0,8000078c <print+0xcc>
    800007a4:	0302859b          	addiw	a1,t0,48
    800007a8:	0ff5f593          	andi	a1,a1,255
    800007ac:	00b68023          	sb	a1,0(a3)
    800007b0:	02c7c7bb          	divw	a5,a5,a2
    800007b4:	fc0796e3          	bnez	a5,80000780 <print+0xc0>
    800007b8:	00174783          	lbu	a5,1(a4)
    800007bc:	f60798e3          	bnez	a5,8000072c <print+0x6c>
    800007c0:	05010113          	addi	sp,sp,80
    800007c4:	00008067          	ret
    800007c8:	f5f79ee3          	bne	a5,t6,80000724 <print+0x64>
    800007cc:	00813783          	ld	a5,8(sp)
    800007d0:	0007b583          	ld	a1,0(a5)
    800007d4:	00878793          	addi	a5,a5,8
    800007d8:	00f13423          	sd	a5,8(sp)
    800007dc:	0005c783          	lbu	a5,0(a1)
    800007e0:	f40782e3          	beqz	a5,80000724 <print+0x64>
    800007e4:	00f68023          	sb	a5,0(a3)
    800007e8:	0015c783          	lbu	a5,1(a1)
    800007ec:	00158593          	addi	a1,a1,1
    800007f0:	f2078ae3          	beqz	a5,80000724 <print+0x64>
    800007f4:	00f68023          	sb	a5,0(a3)
    800007f8:	0015c783          	lbu	a5,1(a1)
    800007fc:	00158593          	addi	a1,a1,1
    80000800:	fe0792e3          	bnez	a5,800007e4 <print+0x124>
    80000804:	f21ff06f          	j	80000724 <print+0x64>
    80000808:	00813783          	ld	a5,8(sp)
    8000080c:	0007a803          	lw	a6,0(a5)
    80000810:	00878793          	addi	a5,a5,8
    80000814:	00f13423          	sd	a5,8(sp)
    80000818:	09035063          	bge	t1,a6,80000898 <print+0x1d8>
    8000081c:	00080593          	mv	a1,a6
    80000820:	00100793          	li	a5,1
    80000824:	0027929b          	slliw	t0,a5,0x2
    80000828:	00f287bb          	addw	a5,t0,a5
    8000082c:	00058293          	mv	t0,a1
    80000830:	0017979b          	slliw	a5,a5,0x1
    80000834:	02c5c5bb          	divw	a1,a1,a2
    80000838:	fe58c6e3          	blt	a7,t0,80000824 <print+0x164>
    8000083c:	02f842bb          	divw	t0,a6,a5
    80000840:	02f8683b          	remw	a6,a6,a5
    80000844:	00537e63          	bgeu	t1,t0,80000860 <print+0x1a0>
    80000848:	00068023          	sb	zero,0(a3)
    8000084c:	02c7c7bb          	divw	a5,a5,a2
    80000850:	ec078ae3          	beqz	a5,80000724 <print+0x64>
    80000854:	02f842bb          	divw	t0,a6,a5
    80000858:	02f8683b          	remw	a6,a6,a5
    8000085c:	fe5366e3          	bltu	t1,t0,80000848 <print+0x188>
    80000860:	0302859b          	addiw	a1,t0,48
    80000864:	0ff5f593          	andi	a1,a1,255
    80000868:	00b68023          	sb	a1,0(a3)
    8000086c:	02c7c7bb          	divw	a5,a5,a2
    80000870:	fc0796e3          	bnez	a5,8000083c <print+0x17c>
    80000874:	eb1ff06f          	j	80000724 <print+0x64>
    80000878:	00813783          	ld	a5,8(sp)
    8000087c:	0007c583          	lbu	a1,0(a5)
    80000880:	00878793          	addi	a5,a5,8
    80000884:	00f13423          	sd	a5,8(sp)
    80000888:	00b68023          	sb	a1,0(a3)
    8000088c:	e99ff06f          	j	80000724 <print+0x64>
    80000890:	00100793          	li	a5,1
    80000894:	eedff06f          	j	80000780 <print+0xc0>
    80000898:	00100793          	li	a5,1
    8000089c:	fa1ff06f          	j	8000083c <print+0x17c>

00000000800008a0 <rand>:
    800008a0:	00000317          	auipc	t1,0x0
    800008a4:	6e830313          	addi	t1,t1,1768 # 80000f88 <initialize>
    800008a8:	00032783          	lw	a5,0(t1)
    800008ac:	00000897          	auipc	a7,0x0
    800008b0:	6f488893          	addi	a7,a7,1780 # 80000fa0 <r>
    800008b4:	0e079c63          	bnez	a5,800009ac <rand+0x10c>
    800008b8:	3557b7b7          	lui	a5,0x3557b
    800008bc:	01479793          	slli	a5,a5,0x14
    800008c0:	00d78793          	addi	a5,a5,13 # 3557b00d <MTIME+0x3356f015>
    800008c4:	00004537          	lui	a0,0x4
    800008c8:	80000637          	lui	a2,0x80000
    800008cc:	00f8b023          	sd	a5,0(a7)
    800008d0:	00000717          	auipc	a4,0x0
    800008d4:	6d870713          	addi	a4,a4,1752 # 80000fa8 <r+0x8>
    800008d8:	00000817          	auipc	a6,0x0
    800008dc:	74480813          	addi	a6,a6,1860 # 8000101c <r+0x7c>
    800008e0:	1a750513          	addi	a0,a0,423 # 41a7 <SCAUSE_STI_MASK+0x41a2>
    800008e4:	fff64613          	not	a2,a2
    800008e8:	0100006f          	j	800008f8 <rand+0x58>
    800008ec:	00d72023          	sw	a3,0(a4)
    800008f0:	00470713          	addi	a4,a4,4
    800008f4:	03070463          	beq	a4,a6,8000091c <rand+0x7c>
    800008f8:	ffc72783          	lw	a5,-4(a4)
    800008fc:	02a787b3          	mul	a5,a5,a0
    80000900:	02c7e7b3          	rem	a5,a5,a2
    80000904:	0007869b          	sext.w	a3,a5
    80000908:	00c685bb          	addw	a1,a3,a2
    8000090c:	fe07d0e3          	bgez	a5,800008ec <rand+0x4c>
    80000910:	00b72023          	sw	a1,0(a4)
    80000914:	00470713          	addi	a4,a4,4
    80000918:	ff0710e3          	bne	a4,a6,800008f8 <rand+0x58>
    8000091c:	0088a703          	lw	a4,8(a7)
    80000920:	000357b7          	lui	a5,0x35
    80000924:	57b78793          	addi	a5,a5,1403 # 3557b <SCAUSE_STI_MASK+0x35576>
    80000928:	00d00693          	li	a3,13
    8000092c:	0007061b          	sext.w	a2,a4
    80000930:	08e8a223          	sw	a4,132(a7)
    80000934:	06d8ae23          	sw	a3,124(a7)
    80000938:	08f8a023          	sw	a5,128(a7)
    8000093c:	00000717          	auipc	a4,0x0
    80000940:	67070713          	addi	a4,a4,1648 # 80000fac <r+0xc>
    80000944:	02200593          	li	a1,34
    80000948:	15700513          	li	a0,343
    8000094c:	00072e83          	lw	t4,0(a4)
    80000950:	00472e03          	lw	t3,4(a4)
    80000954:	00872803          	lw	a6,8(a4)
    80000958:	00de86bb          	addw	a3,t4,a3
    8000095c:	00fe07bb          	addw	a5,t3,a5
    80000960:	00c8063b          	addw	a2,a6,a2
    80000964:	06d72e23          	sw	a3,124(a4)
    80000968:	08f72023          	sw	a5,128(a4)
    8000096c:	08c72223          	sw	a2,132(a4)
    80000970:	0035859b          	addiw	a1,a1,3
    80000974:	00c70713          	addi	a4,a4,12
    80000978:	fca59ae3          	bne	a1,a0,8000094c <rand+0xac>
    8000097c:	00001797          	auipc	a5,0x1
    80000980:	b8078793          	addi	a5,a5,-1152 # 800014fc <r+0x55c>
    80000984:	00001617          	auipc	a2,0x1
    80000988:	b7c60613          	addi	a2,a2,-1156 # 80001500 <r+0x560>
    8000098c:	ff47a703          	lw	a4,-12(a5)
    80000990:	f847a683          	lw	a3,-124(a5)
    80000994:	00478793          	addi	a5,a5,4
    80000998:	00d7073b          	addw	a4,a4,a3
    8000099c:	fee7ae23          	sw	a4,-4(a5)
    800009a0:	fec796e3          	bne	a5,a2,8000098c <rand+0xec>
    800009a4:	00100793          	li	a5,1
    800009a8:	00f32023          	sw	a5,0(t1)
    800009ac:	00000597          	auipc	a1,0x0
    800009b0:	5e058593          	addi	a1,a1,1504 # 80000f8c <t>
    800009b4:	0005a783          	lw	a5,0(a1)
    800009b8:	29000713          	li	a4,656
    800009bc:	00500513          	li	a0,5
    800009c0:	02e7e7bb          	remw	a5,a5,a4
    800009c4:	1397869b          	addiw	a3,a5,313
    800009c8:	1557871b          	addiw	a4,a5,341
    800009cc:	00269693          	slli	a3,a3,0x2
    800009d0:	00271713          	slli	a4,a4,0x2
    800009d4:	00d886b3          	add	a3,a7,a3
    800009d8:	00e88733          	add	a4,a7,a4
    800009dc:	0006a683          	lw	a3,0(a3)
    800009e0:	00072703          	lw	a4,0(a4)
    800009e4:	1587861b          	addiw	a2,a5,344
    800009e8:	00261613          	slli	a2,a2,0x2
    800009ec:	00e6873b          	addw	a4,a3,a4
    800009f0:	02a7753b          	remuw	a0,a4,a0
    800009f4:	00c888b3          	add	a7,a7,a2
    800009f8:	0017879b          	addiw	a5,a5,1
    800009fc:	00e8a023          	sw	a4,0(a7)
    80000a00:	00f5a023          	sw	a5,0(a1)
    80000a04:	0015051b          	addiw	a0,a0,1
    80000a08:	00008067          	ret

0000000080000a0c <start_kernel>:
    80000a0c:	ff010113          	addi	sp,sp,-16
    80000a10:	00113423          	sd	ra,8(sp)
    80000a14:	024000ef          	jal	ra,80000a38 <os_test>
    80000a18:	000057b7          	lui	a5,0x5
    80000a1c:	5557879b          	addiw	a5,a5,1365
    80000a20:	00100737          	lui	a4,0x100
    80000a24:	00f71023          	sh	a5,0(a4) # 100000 <SCAUSE_STI_MASK+0xffffb>
    80000a28:	00813083          	ld	ra,8(sp)
    80000a2c:	00000513          	li	a0,0
    80000a30:	01010113          	addi	sp,sp,16
    80000a34:	00008067          	ret

0000000080000a38 <os_test>:
    80000a38:	ff010113          	addi	sp,sp,-16
    80000a3c:	00000517          	auipc	a0,0x0
    80000a40:	42450513          	addi	a0,a0,1060 # 80000e60 <sti_handler_s+0x60>
    80000a44:	00113423          	sd	ra,8(sp)
    80000a48:	bddff0ef          	jal	ra,80000624 <puts>
    80000a4c:	02c000ef          	jal	ra,80000a78 <task_init>
    80000a50:	00813083          	ld	ra,8(sp)
    80000a54:	00000513          	li	a0,0
    80000a58:	01010113          	addi	sp,sp,16
    80000a5c:	00008067          	ret

0000000080000a60 <dead_loop>:
    80000a60:	0000006f          	j	80000a60 <dead_loop>

0000000080000a64 <init_epc>:
    80000a64:	00000797          	auipc	a5,0x0
    80000a68:	ffc78793          	addi	a5,a5,-4 # 80000a60 <dead_loop>
    80000a6c:	14179073          	csrw	sepc,a5
    80000a70:	10200073          	sret
    80000a74:	00008067          	ret

0000000080000a78 <task_init>:
    80000a78:	fb010113          	addi	sp,sp,-80
    80000a7c:	00000517          	auipc	a0,0x0
    80000a80:	40c50513          	addi	a0,a0,1036 # 80000e88 <sti_handler_s+0x88>
    80000a84:	04813023          	sd	s0,64(sp)
    80000a88:	02913c23          	sd	s1,56(sp)
    80000a8c:	03213823          	sd	s2,48(sp)
    80000a90:	03313423          	sd	s3,40(sp)
    80000a94:	03413023          	sd	s4,32(sp)
    80000a98:	01513c23          	sd	s5,24(sp)
    80000a9c:	01613823          	sd	s6,16(sp)
    80000aa0:	01713423          	sd	s7,8(sp)
    80000aa4:	04113423          	sd	ra,72(sp)
    80000aa8:	c19ff0ef          	jal	ra,800006c0 <print>
    80000aac:	080017b7          	lui	a5,0x8001
    80000ab0:	00479793          	slli	a5,a5,0x4
    80000ab4:	00080437          	lui	s0,0x80
    80000ab8:	00000717          	auipc	a4,0x0
    80000abc:	4cf73c23          	sd	a5,1240(a4) # 80000f90 <current>
    80000ac0:	00001917          	auipc	s2,0x1
    80000ac4:	48090913          	addi	s2,s2,1152 # 80001f40 <task>
    80000ac8:	01140413          	addi	s0,s0,17 # 80011 <SCAUSE_STI_MASK+0x8000c>
    80000acc:	00f93023          	sd	a5,0(s2)
    80000ad0:	00c41413          	slli	s0,s0,0xc
    80000ad4:	00500713          	li	a4,5
    80000ad8:	0007b023          	sd	zero,0(a5) # 8001000 <MTIME+0x5ff5008>
    80000adc:	0007b423          	sd	zero,8(a5)
    80000ae0:	00e7b823          	sd	a4,16(a5)
    80000ae4:	0007bc23          	sd	zero,24(a5)
    80000ae8:	0207b023          	sd	zero,32(a5)
    80000aec:	0287b823          	sd	s0,48(a5)
    80000af0:	00000b97          	auipc	s7,0x0
    80000af4:	f74b8b93          	addi	s7,s7,-140 # 80000a64 <init_epc>
    80000af8:	00100493          	li	s1,1
    80000afc:	00800b13          	li	s6,8
    80000b00:	00500993          	li	s3,5
    80000b04:	00001ab7          	lui	s5,0x1
    80000b08:	00000a17          	auipc	s4,0x0
    80000b0c:	390a0a13          	addi	s4,s4,912 # 80000e98 <sti_handler_s+0x98>
    80000b10:	00893423          	sd	s0,8(s2)
    80000b14:	409b0633          	sub	a2,s6,s1
    80000b18:	02943023          	sd	s1,32(s0)
    80000b1c:	00043023          	sd	zero,0(s0)
    80000b20:	00c43423          	sd	a2,8(s0)
    80000b24:	01343823          	sd	s3,16(s0)
    80000b28:	00043c23          	sd	zero,24(s0)
    80000b2c:	00040793          	mv	a5,s0
    80000b30:	01540433          	add	s0,s0,s5
    80000b34:	00048593          	mv	a1,s1
    80000b38:	0287b823          	sd	s0,48(a5)
    80000b3c:	0377b423          	sd	s7,40(a5)
    80000b40:	00500693          	li	a3,5
    80000b44:	000a0513          	mv	a0,s4
    80000b48:	00148493          	addi	s1,s1,1
    80000b4c:	b75ff0ef          	jal	ra,800006c0 <print>
    80000b50:	00890913          	addi	s2,s2,8
    80000b54:	fb349ee3          	bne	s1,s3,80000b10 <task_init+0x98>
    80000b58:	00000797          	auipc	a5,0x0
    80000b5c:	f0878793          	addi	a5,a5,-248 # 80000a60 <dead_loop>
    80000b60:	14179073          	csrw	sepc,a5
    80000b64:	10200073          	sret
    80000b68:	04813083          	ld	ra,72(sp)
    80000b6c:	04013403          	ld	s0,64(sp)
    80000b70:	03813483          	ld	s1,56(sp)
    80000b74:	03013903          	ld	s2,48(sp)
    80000b78:	02813983          	ld	s3,40(sp)
    80000b7c:	02013a03          	ld	s4,32(sp)
    80000b80:	01813a83          	ld	s5,24(sp)
    80000b84:	01013b03          	ld	s6,16(sp)
    80000b88:	00813b83          	ld	s7,8(sp)
    80000b8c:	05010113          	addi	sp,sp,80
    80000b90:	00008067          	ret

0000000080000b94 <schedule>:
    80000b94:	fc010113          	addi	sp,sp,-64
    80000b98:	03213023          	sd	s2,32(sp)
    80000b9c:	00000917          	auipc	s2,0x0
    80000ba0:	3f490913          	addi	s2,s2,1012 # 80000f90 <current>
    80000ba4:	00093883          	ld	a7,0(s2)
    80000ba8:	02113c23          	sd	ra,56(sp)
    80000bac:	02813823          	sd	s0,48(sp)
    80000bb0:	0088b783          	ld	a5,8(a7)
    80000bb4:	02913423          	sd	s1,40(sp)
    80000bb8:	01313c23          	sd	s3,24(sp)
    80000bbc:	01413823          	sd	s4,16(sp)
    80000bc0:	01513423          	sd	s5,8(sp)
    80000bc4:	18f05063          	blez	a5,80000d44 <schedule+0x1b0>
    80000bc8:	00001417          	auipc	s0,0x1
    80000bcc:	37840413          	addi	s0,s0,888 # 80001f40 <task>
    80000bd0:	20043783          	ld	a5,512(s0)
    80000bd4:	04000693          	li	a3,64
    80000bd8:	04000613          	li	a2,64
    80000bdc:	0107b503          	ld	a0,16(a5)
    80000be0:	0087b803          	ld	a6,8(a5)
    80000be4:	00001797          	auipc	a5,0x1
    80000be8:	55c78793          	addi	a5,a5,1372 # 80002140 <_bss_end>
    80000bec:	0100006f          	j	80000bfc <schedule+0x68>
    80000bf0:	14a70263          	beq	a4,a0,80000d34 <schedule+0x1a0>
    80000bf4:	fff68693          	addi	a3,a3,-1
    80000bf8:	02878e63          	beq	a5,s0,80000c34 <schedule+0xa0>
    80000bfc:	0007b703          	ld	a4,0(a5)
    80000c00:	ff878793          	addi	a5,a5,-8
    80000c04:	fe0708e3          	beqz	a4,80000bf4 <schedule+0x60>
    80000c08:	00073583          	ld	a1,0(a4)
    80000c0c:	fe0594e3          	bnez	a1,80000bf4 <schedule+0x60>
    80000c10:	00873583          	ld	a1,8(a4)
    80000c14:	feb050e3          	blez	a1,80000bf4 <schedule+0x60>
    80000c18:	01073703          	ld	a4,16(a4)
    80000c1c:	fca75ae3          	bge	a4,a0,80000bf0 <schedule+0x5c>
    80000c20:	00068613          	mv	a2,a3
    80000c24:	00058813          	mv	a6,a1
    80000c28:	00070513          	mv	a0,a4
    80000c2c:	fff68693          	addi	a3,a3,-1
    80000c30:	fc8796e3          	bne	a5,s0,80000bfc <schedule+0x68>
    80000c34:	00000797          	auipc	a5,0x0
    80000c38:	3607a223          	sw	zero,868(a5) # 80000f98 <current_number.0>
    80000c3c:	00040793          	mv	a5,s0
    80000c40:	00000713          	li	a4,0
    80000c44:	00000513          	li	a0,0
    80000c48:	0100006f          	j	80000c58 <schedule+0xc4>
    80000c4c:	0017071b          	addiw	a4,a4,1
    80000c50:	01168c63          	beq	a3,a7,80000c68 <schedule+0xd4>
    80000c54:	00100513          	li	a0,1
    80000c58:	0007b683          	ld	a3,0(a5)
    80000c5c:	0007059b          	sext.w	a1,a4
    80000c60:	00878793          	addi	a5,a5,8
    80000c64:	fe0694e3          	bnez	a3,80000c4c <schedule+0xb8>
    80000c68:	00050663          	beqz	a0,80000c74 <schedule+0xe0>
    80000c6c:	00000797          	auipc	a5,0x0
    80000c70:	32b7a623          	sw	a1,812(a5) # 80000f98 <current_number.0>
    80000c74:	00361a93          	slli	s5,a2,0x3
    80000c78:	02b60063          	beq	a2,a1,80000c98 <schedule+0x104>
    80000c7c:	015407b3          	add	a5,s0,s5
    80000c80:	0007b783          	ld	a5,0(a5)
    80000c84:	00000517          	auipc	a0,0x0
    80000c88:	27c50513          	addi	a0,a0,636 # 80000f00 <sti_handler_s+0x100>
    80000c8c:	0087b703          	ld	a4,8(a5)
    80000c90:	0107b683          	ld	a3,16(a5)
    80000c94:	a2dff0ef          	jal	ra,800006c0 <print>
    80000c98:	00000517          	auipc	a0,0x0
    80000c9c:	2a850513          	addi	a0,a0,680 # 80000f40 <sti_handler_s+0x140>
    80000ca0:	a21ff0ef          	jal	ra,800006c0 <print>
    80000ca4:	00843783          	ld	a5,8(s0)
    80000ca8:	00001497          	auipc	s1,0x1
    80000cac:	2a048493          	addi	s1,s1,672 # 80001f48 <task+0x8>
    80000cb0:	00100993          	li	s3,1
    80000cb4:	00000a17          	auipc	s4,0x0
    80000cb8:	2aca0a13          	addi	s4,s4,684 # 80000f60 <sti_handler_s+0x160>
    80000cbc:	02078c63          	beqz	a5,80000cf4 <schedule+0x160>
    80000cc0:	be1ff0ef          	jal	ra,800008a0 <rand>
    80000cc4:	0004b783          	ld	a5,0(s1)
    80000cc8:	02051693          	slli	a3,a0,0x20
    80000ccc:	0206d693          	srli	a3,a3,0x20
    80000cd0:	0087b603          	ld	a2,8(a5)
    80000cd4:	00098593          	mv	a1,s3
    80000cd8:	00d7b823          	sd	a3,16(a5)
    80000cdc:	000a0513          	mv	a0,s4
    80000ce0:	00848493          	addi	s1,s1,8
    80000ce4:	9ddff0ef          	jal	ra,800006c0 <print>
    80000ce8:	0004b783          	ld	a5,0(s1)
    80000cec:	0019899b          	addiw	s3,s3,1
    80000cf0:	fc0798e3          	bnez	a5,80000cc0 <schedule+0x12c>
    80000cf4:	01540433          	add	s0,s0,s5
    80000cf8:	00043783          	ld	a5,0(s0)
    80000cfc:	00093583          	ld	a1,0(s2)
    80000d00:	08b78e63          	beq	a5,a1,80000d9c <schedule+0x208>
    80000d04:	03013403          	ld	s0,48(sp)
    80000d08:	03813083          	ld	ra,56(sp)
    80000d0c:	02813483          	ld	s1,40(sp)
    80000d10:	01813983          	ld	s3,24(sp)
    80000d14:	01013a03          	ld	s4,16(sp)
    80000d18:	00813a83          	ld	s5,8(sp)
    80000d1c:	00f93023          	sd	a5,0(s2)
    80000d20:	02013903          	ld	s2,32(sp)
    80000d24:	02858593          	addi	a1,a1,40
    80000d28:	02878513          	addi	a0,a5,40
    80000d2c:	04010113          	addi	sp,sp,64
    80000d30:	881ff06f          	j	800005b0 <__switch_to>
    80000d34:	ed05d0e3          	bge	a1,a6,80000bf4 <schedule+0x60>
    80000d38:	00058813          	mv	a6,a1
    80000d3c:	00068613          	mv	a2,a3
    80000d40:	eb5ff06f          	j	80000bf4 <schedule+0x60>
    80000d44:	00001497          	auipc	s1,0x1
    80000d48:	3fc48493          	addi	s1,s1,1020 # 80002140 <_bss_end>
    80000d4c:	04000413          	li	s0,64
    80000d50:	00700a13          	li	s4,7
    80000d54:	00000997          	auipc	s3,0x0
    80000d58:	18c98993          	addi	s3,s3,396 # 80000ee0 <sti_handler_s+0xe0>
    80000d5c:	0004b783          	ld	a5,0(s1)
    80000d60:	00040593          	mv	a1,s0
    80000d64:	ff848493          	addi	s1,s1,-8
    80000d68:	0087b703          	ld	a4,8(a5)
    80000d6c:	fff4041b          	addiw	s0,s0,-1
    80000d70:	00070863          	beqz	a4,80000d80 <schedule+0x1ec>
    80000d74:	fe0414e3          	bnez	s0,80000d5c <schedule+0x1c8>
    80000d78:	00093883          	ld	a7,0(s2)
    80000d7c:	e4dff06f          	j	80000bc8 <schedule+0x34>
    80000d80:	00347613          	andi	a2,s0,3
    80000d84:	40ca063b          	subw	a2,s4,a2
    80000d88:	00c7b423          	sd	a2,8(a5)
    80000d8c:	00098513          	mv	a0,s3
    80000d90:	931ff0ef          	jal	ra,800006c0 <print>
    80000d94:	fc0414e3          	bnez	s0,80000d5c <schedule+0x1c8>
    80000d98:	fe1ff06f          	j	80000d78 <schedule+0x1e4>
    80000d9c:	03813083          	ld	ra,56(sp)
    80000da0:	03013403          	ld	s0,48(sp)
    80000da4:	02813483          	ld	s1,40(sp)
    80000da8:	02013903          	ld	s2,32(sp)
    80000dac:	01813983          	ld	s3,24(sp)
    80000db0:	01013a03          	ld	s4,16(sp)
    80000db4:	00813a83          	ld	s5,8(sp)
    80000db8:	04010113          	addi	sp,sp,64
    80000dbc:	00008067          	ret

0000000080000dc0 <do_timer>:
    80000dc0:	00000717          	auipc	a4,0x0
    80000dc4:	1d073703          	ld	a4,464(a4) # 80000f90 <current>
    80000dc8:	00873783          	ld	a5,8(a4)
    80000dcc:	fff78793          	addi	a5,a5,-1
    80000dd0:	00f73423          	sd	a5,8(a4)
    80000dd4:	dc1ff06f          	j	80000b94 <schedule>

0000000080000dd8 <switch_to>:
    80000dd8:	00000717          	auipc	a4,0x0
    80000ddc:	1b870713          	addi	a4,a4,440 # 80000f90 <current>
    80000de0:	00073583          	ld	a1,0(a4)
    80000de4:	00050793          	mv	a5,a0
    80000de8:	00a58a63          	beq	a1,a0,80000dfc <switch_to+0x24>
    80000dec:	02858593          	addi	a1,a1,40
    80000df0:	02850513          	addi	a0,a0,40
    80000df4:	00f73023          	sd	a5,0(a4)
    80000df8:	fb8ff06f          	j	800005b0 <__switch_to>
    80000dfc:	00008067          	ret

0000000080000e00 <sti_handler_s>:
    80000e00:	ff010113          	addi	sp,sp,-16
    80000e04:	00813023          	sd	s0,0(sp)
    80000e08:	00000417          	auipc	s0,0x0
    80000e0c:	19440413          	addi	s0,s0,404 # 80000f9c <if_hundred.0>
    80000e10:	00042783          	lw	a5,0(s0)
    80000e14:	00113423          	sd	ra,8(sp)
    80000e18:	06400713          	li	a4,100
    80000e1c:	00e78e63          	beq	a5,a4,80000e38 <sti_handler_s+0x38>
    80000e20:	0017879b          	addiw	a5,a5,1
    80000e24:	00813083          	ld	ra,8(sp)
    80000e28:	00f42023          	sw	a5,0(s0)
    80000e2c:	00013403          	ld	s0,0(sp)
    80000e30:	01010113          	addi	sp,sp,16
    80000e34:	00008067          	ret
    80000e38:	00000797          	auipc	a5,0x0
    80000e3c:	1607a223          	sw	zero,356(a5) # 80000f9c <if_hundred.0>
    80000e40:	f81ff0ef          	jal	ra,80000dc0 <do_timer>
    80000e44:	00042783          	lw	a5,0(s0)
    80000e48:	00813083          	ld	ra,8(sp)
    80000e4c:	0017879b          	addiw	a5,a5,1
    80000e50:	00f42023          	sw	a5,0(s0)
    80000e54:	00013403          	ld	s0,0(sp)
    80000e58:	01010113          	addi	sp,sp,16
    80000e5c:	00008067          	ret
